/*
 * Intel ACPI Component Architecture
 * AML/ASL+ Disassembler version 20200925 (64-bit version)
 * Copyright (c) 2000 - 2020 Intel Corporation
 * 
 * Disassembly of dmar.dat, Tue Oct 27 19:00:48 2020
 *
 * ACPI Data Table [DMAR]
 *
 * Format: [HexOffset DecimalOffset ByteLength]  FieldName : FieldValue
 */

[000h 0000   4]                    Signature : "DMAR"    [DMA Remapping table]
[004h 0004   4]                 Table Length : 00000114
[008h 0008   1]                     Revision : 01
[009h 0009   1]                     Checksum : BA
[00Ah 0010   6]                       Oem ID : "ACRSYS"
[010h 0016   8]                 Oem Table ID : "ACRPRDCT"
[018h 0024   4]                 Oem Revision : 00000001
[01Ch 0028   4]              Asl Compiler ID : "1025"
[020h 0032   4]        Asl Compiler Revision : 00040000

[024h 0036   1]           Host Address Width : 26
[025h 0037   1]                        Flags : 03
[026h 0038  10]                     Reserved : 00 00 00 00 00 00 00 00 00 00

[030h 0048   2]                Subtable Type : 0000 [Hardware Unit Definition]
[032h 0050   2]                       Length : 0018

[034h 0052   1]                        Flags : 00
[035h 0053   1]                     Reserved : 00
[036h 0054   2]           PCI Segment Number : 0000
[038h 0056   8]        Register Base Address : 00000000FED90000

[040h 0064   1]            Device Scope Type : 01 [PCI Endpoint Device]
[041h 0065   1]                 Entry Length : 08
[042h 0066   2]                     Reserved : 0000
[044h 0068   1]               Enumeration ID : 00
[045h 0069   1]               PCI Bus Number : 00

[046h 0070   2]                     PCI Path : 02,00


[048h 0072   2]                Subtable Type : 0000 [Hardware Unit Definition]
[04Ah 0074   2]                       Length : 0038

[04Ch 0076   1]                        Flags : 01
[04Dh 0077   1]                     Reserved : 00
[04Eh 0078   2]           PCI Segment Number : 0000
[050h 0080   8]        Register Base Address : 00000000FED91000

[058h 0088   1]            Device Scope Type : 03 [IOAPIC Device]
[059h 0089   1]                 Entry Length : 08
[05Ah 0090   2]                     Reserved : 0000
[05Ch 0092   1]               Enumeration ID : 02
[05Dh 0093   1]               PCI Bus Number : F0

[05Eh 0094   2]                     PCI Path : 1F,00


[060h 0096   1]            Device Scope Type : 04 [Message-capable HPET Device]
[061h 0097   1]                 Entry Length : 08
[062h 0098   2]                     Reserved : 0000
[064h 0100   1]               Enumeration ID : 00
[065h 0101   1]               PCI Bus Number : 00

[066h 0102   2]                     PCI Path : 1F,00


[068h 0104   1]            Device Scope Type : 05 [Namespace Device]
[069h 0105   1]                 Entry Length : 08
[06Ah 0106   2]                     Reserved : 0000
[06Ch 0108   1]               Enumeration ID : 01
[06Dh 0109   1]               PCI Bus Number : 00

[06Eh 0110   2]                     PCI Path : 15,00


[070h 0112   1]            Device Scope Type : 05 [Namespace Device]
[071h 0113   1]                 Entry Length : 08
[072h 0114   2]                     Reserved : 0000
[074h 0116   1]               Enumeration ID : 02
[075h 0117   1]               PCI Bus Number : 00

[076h 0118   2]                     PCI Path : 15,01


[078h 0120   1]            Device Scope Type : 05 [Namespace Device]
[079h 0121   1]                 Entry Length : 08
[07Ah 0122   2]                     Reserved : 0000
[07Ch 0124   1]               Enumeration ID : 03
[07Dh 0125   1]               PCI Bus Number : 00

[07Eh 0126   2]                     PCI Path : 15,02


[080h 0128   2]                Subtable Type : 0001 [Reserved Memory Region]
[082h 0130   2]                       Length : 0020

[084h 0132   2]                     Reserved : 0000
[086h 0134   2]           PCI Segment Number : 0000
[088h 0136   8]                 Base Address : 000000008AB7A000
[090h 0144   8]          End Address (limit) : 000000008AB99FFF

[098h 0152   1]            Device Scope Type : 01 [PCI Endpoint Device]
[099h 0153   1]                 Entry Length : 08
[09Ah 0154   2]                     Reserved : 0000
[09Ch 0156   1]               Enumeration ID : 00
[09Dh 0157   1]               PCI Bus Number : 00

[09Eh 0158   2]                     PCI Path : 14,00


[0A0h 0160   2]                Subtable Type : 0001 [Reserved Memory Region]
[0A2h 0162   2]                       Length : 0020

[0A4h 0164   2]                     Reserved : 0000
[0A6h 0166   2]           PCI Segment Number : 0000
[0A8h 0168   8]                 Base Address : 000000008B800000
[0B0h 0176   8]          End Address (limit) : 000000008FFFFFFF

[0B8h 0184   1]            Device Scope Type : 01 [PCI Endpoint Device]
[0B9h 0185   1]                 Entry Length : 08
[0BAh 0186   2]                     Reserved : 0000
[0BCh 0188   1]               Enumeration ID : 00
[0BDh 0189   1]               PCI Bus Number : 00

[0BEh 0190   2]                     PCI Path : 02,00


[0C0h 0192   2]                Subtable Type : 0004 [ACPI Namespace Device Declaration]
[0C2h 0194   2]                       Length : 001C

[0C4h 0196   3]                     Reserved : 000000
[0C7h 0199   1]                Device Number : 01
[0C8h 0200  15]                  Device Name : "\_SB.PCI0.I2C0"

[0DCh 0220   2]                Subtable Type : 0004 [ACPI Namespace Device Declaration]
[0DEh 0222   2]                       Length : 001C

[0E0h 0224   3]                     Reserved : 000000
[0E3h 0227   1]                Device Number : 02
[0E4h 0228  15]                  Device Name : "\_SB.PCI0.I2C1"

[0F8h 0248   2]                Subtable Type : 0004 [ACPI Namespace Device Declaration]
[0FAh 0250   2]                       Length : 001C

[0FCh 0252   3]                     Reserved : 000000
[0FFh 0255   1]                Device Number : 03
[100h 0256  15]                  Device Name : "\_SB.PCI0.I2C2"

Raw Table Data: Length 276 (0x114)

    0000: 44 4D 41 52 14 01 00 00 01 BA 41 43 52 53 59 53  // DMAR......ACRSYS
    0010: 41 43 52 50 52 44 43 54 01 00 00 00 31 30 32 35  // ACRPRDCT....1025
    0020: 00 00 04 00 26 03 00 00 00 00 00 00 00 00 00 00  // ....&...........
    0030: 00 00 18 00 00 00 00 00 00 00 D9 FE 00 00 00 00  // ................
    0040: 01 08 00 00 00 00 02 00 00 00 38 00 01 00 00 00  // ..........8.....
    0050: 00 10 D9 FE 00 00 00 00 03 08 00 00 02 F0 1F 00  // ................
    0060: 04 08 00 00 00 00 1F 00 05 08 00 00 01 00 15 00  // ................
    0070: 05 08 00 00 02 00 15 01 05 08 00 00 03 00 15 02  // ................
    0080: 01 00 20 00 00 00 00 00 00 A0 B7 8A 00 00 00 00  // .. .............
    0090: FF 9F B9 8A 00 00 00 00 01 08 00 00 00 00 14 00  // ................
    00A0: 01 00 20 00 00 00 00 00 00 00 80 8B 00 00 00 00  // .. .............
    00B0: FF FF FF 8F 00 00 00 00 01 08 00 00 00 00 02 00  // ................
    00C0: 04 00 1C 00 00 00 00 01 5C 5F 53 42 2E 50 43 49  // ........\_SB.PCI
    00D0: 30 2E 49 32 43 30 00 00 00 00 00 00 04 00 1C 00  // 0.I2C0..........
    00E0: 00 00 00 02 5C 5F 53 42 2E 50 43 49 30 2E 49 32  // ....\_SB.PCI0.I2
    00F0: 43 31 00 00 00 00 00 00 04 00 1C 00 00 00 00 03  // C1..............
    0100: 5C 5F 53 42 2E 50 43 49 30 2E 49 32 43 32 00 00  // \_SB.PCI0.I2C2..
    0110: 00 00 00 00                                      // ....
